	.cpu cortex-m4
	.eabi_attribute 20, 1
	.eabi_attribute 21, 1
	.eabi_attribute 23, 3
	.eabi_attribute 24, 1
	.eabi_attribute 25, 1
	.eabi_attribute 26, 1
	.eabi_attribute 30, 6
	.eabi_attribute 34, 1
	.eabi_attribute 18, 4
	.file	"max7219.c"
	.text
.Ltext0:
	.global	aTxBuf
	.section	.bss.aTxBuf,"aw",%nobits
	.align	2
	.type	aTxBuf, %object
	.size	aTxBuf, 1
aTxBuf:
	.space	1
	.global	dg
	.section	.data.dg,"aw"
	.type	dg, %object
	.size	dg, 1
dg:
	.byte	8
	.section	.text.Send_7219,"ax",%progbits
	.align	1
	.global	Send_7219
	.syntax unified
	.thumb
	.thumb_func
	.fpu softvfp
	.type	Send_7219, %function
Send_7219:
.LFB130:
	.file 1 "C:\\Users\\User\\Desktop\\MainBoard_FreeRTOS\\Src\\max7219.c"
	.loc 1 11 1
	@ args = 0, pretend = 0, frame = 8
	@ frame_needed = 0, uses_anonymous_args = 0
	push	{lr}
.LCFI0:
	sub	sp, sp, #12
.LCFI1:
	mov	r3, r0
	mov	r2, r1
	strb	r3, [sp, #7]
	mov	r3, r2
	strb	r3, [sp, #6]
	.loc 1 12 2
	movs	r2, #0
	movs	r1, #1
	ldr	r0, .L2
	bl	HAL_GPIO_WritePin
	.loc 1 13 11
	ldr	r2, .L2+4
	ldrb	r3, [sp, #7]
	strb	r3, [r2]
	.loc 1 14 2
	movw	r3, #5000
	movs	r2, #1
	ldr	r1, .L2+4
	ldr	r0, .L2+8
	bl	HAL_SPI_Transmit
	.loc 1 15 11
	ldr	r2, .L2+4
	ldrb	r3, [sp, #6]
	strb	r3, [r2]
	.loc 1 16 2
	movw	r3, #5000
	movs	r2, #1
	ldr	r1, .L2+4
	ldr	r0, .L2+8
	bl	HAL_SPI_Transmit
	.loc 1 17 2
	movs	r2, #1
	movs	r1, #1
	ldr	r0, .L2
	bl	HAL_GPIO_WritePin
	.loc 1 18 1
	nop
	add	sp, sp, #12
.LCFI2:
	@ sp needed
	ldr	pc, [sp], #4
.L3:
	.align	2
.L2:
	.word	1073875968
	.word	aTxBuf
	.word	hspi3
.LFE130:
	.size	Send_7219, .-Send_7219
	.section	.text.Clear_7219,"ax",%progbits
	.align	1
	.global	Clear_7219
	.syntax unified
	.thumb
	.thumb_func
	.fpu softvfp
	.type	Clear_7219, %function
Clear_7219:
.LFB131:
	.loc 1 21 1
	@ args = 0, pretend = 0, frame = 8
	@ frame_needed = 0, uses_anonymous_args = 0
	push	{lr}
.LCFI3:
	sub	sp, sp, #12
.LCFI4:
	.loc 1 22 10
	ldr	r3, .L6
	ldrb	r3, [r3]
	strb	r3, [sp, #7]
.L5:
	.loc 1 25 3 discriminator 1
	ldrb	r3, [sp, #7]	@ zero_extendqisi2
	movs	r1, #0
	mov	r0, r3
	bl	Send_7219
	.loc 1 26 2 discriminator 1
	ldrb	r3, [sp, #7]
	subs	r3, r3, #1
	strb	r3, [sp, #7]
	ldrb	r3, [sp, #7]	@ zero_extendqisi2
	cmp	r3, #0
	bne	.L5
	.loc 1 27 1
	nop
	add	sp, sp, #12
.LCFI5:
	@ sp needed
	ldr	pc, [sp], #4
.L7:
	.align	2
.L6:
	.word	dg
.LFE131:
	.size	Clear_7219, .-Clear_7219
	.section	.text.Number_7219,"ax",%progbits
	.align	1
	.global	Number_7219
	.syntax unified
	.thumb
	.thumb_func
	.fpu softvfp
	.type	Number_7219, %function
Number_7219:
.LFB132:
	.loc 1 30 1
	@ args = 0, pretend = 0, frame = 16
	@ frame_needed = 0, uses_anonymous_args = 0
	push	{lr}
.LCFI6:
	sub	sp, sp, #20
.LCFI7:
	str	r0, [sp, #4]
	.loc 1 31 10
	movs	r3, #0
	strb	r3, [sp, #15]
	.loc 1 32 6
	ldr	r3, [sp, #4]
	.loc 1 32 4
	cmp	r3, #0
	bge	.L9
	.loc 1 34 5
	movs	r3, #1
	strb	r3, [sp, #15]
	.loc 1 35 4
	ldr	r3, [sp, #4]
	rsbs	r3, r3, #0
	str	r3, [sp, #4]
.L9:
	.loc 1 37 10
	movs	r3, #1
	strb	r3, [sp, #14]
.L10:
	.loc 1 40 3 discriminator 1
	ldrb	r3, [sp, #14]
	adds	r3, r3, #1
	strb	r3, [sp, #14]
	.loc 1 40 18 discriminator 1
	ldr	r2, [sp, #4]
	ldr	r3, .L13
	smull	r1, r3, r3, r2
	asrs	r1, r3, #2
	asrs	r3, r2, #31
	subs	r1, r1, r3
	mov	r3, r1
	lsls	r3, r3, #2
	add	r3, r3, r1
	lsls	r3, r3, #1
	subs	r1, r2, r3
	.loc 1 40 3 discriminator 1
	uxtb	r2, r1
	ldrb	r3, [sp, #14]	@ zero_extendqisi2
	mov	r1, r2
	mov	r0, r3
	bl	Send_7219
	.loc 1 41 4 discriminator 1
	ldr	r3, [sp, #4]
	ldr	r2, .L13
	smull	r1, r2, r2, r3
	asrs	r2, r2, #2
	asrs	r3, r3, #31
	subs	r3, r2, r3
	str	r3, [sp, #4]
	.loc 1 42 10 discriminator 1
	ldr	r3, [sp, #4]
	.loc 1 42 2 discriminator 1
	cmp	r3, #0
	bne	.L10
	.loc 1 43 4
	ldrb	r3, [sp, #15]	@ zero_extendqisi2
	cmp	r3, #0
	beq	.L12
	.loc 1 45 3
	ldrb	r3, [sp, #14]
	adds	r3, r3, #1
	uxtb	r3, r3
	movs	r1, #10
	mov	r0, r3
	bl	Send_7219
.L12:
	.loc 1 47 1
	nop
	add	sp, sp, #20
.LCFI8:
	@ sp needed
	ldr	pc, [sp], #4
.L14:
	.align	2
.L13:
	.word	1717986919
.LFE132:
	.size	Number_7219, .-Number_7219
	.section	.text.Init_7219,"ax",%progbits
	.align	1
	.global	Init_7219
	.syntax unified
	.thumb
	.thumb_func
	.fpu softvfp
	.type	Init_7219, %function
Init_7219:
.LFB133:
	.loc 1 50 1
	@ args = 0, pretend = 0, frame = 0
	@ frame_needed = 0, uses_anonymous_args = 0
	push	{r3, lr}
.LCFI9:
	.loc 1 51 3
	movs	r1, #0
	movs	r0, #9
	bl	Send_7219
	.loc 1 52 3
	movs	r1, #7
	movs	r0, #11
	bl	Send_7219
	.loc 1 53 3
	movs	r1, #1
	movs	r0, #10
	bl	Send_7219
	.loc 1 54 3
	movs	r1, #1
	movs	r0, #12
	bl	Send_7219
	.loc 1 55 3
	bl	Clear_7219
	.loc 1 56 1
	nop
	pop	{r3, pc}
.LFE133:
	.size	Init_7219, .-Init_7219
	.section	.debug_frame,"",%progbits
.Lframe0:
	.4byte	.LECIE0-.LSCIE0
.LSCIE0:
	.4byte	0xffffffff
	.byte	0x3
	.ascii	"\000"
	.uleb128 0x1
	.sleb128 -4
	.uleb128 0xe
	.byte	0xc
	.uleb128 0xd
	.uleb128 0
	.align	2
.LECIE0:
.LSFDE0:
	.4byte	.LEFDE0-.LASFDE0
.LASFDE0:
	.4byte	.Lframe0
	.4byte	.LFB130
	.4byte	.LFE130-.LFB130
	.byte	0x4
	.4byte	.LCFI0-.LFB130
	.byte	0xe
	.uleb128 0x4
	.byte	0x8e
	.uleb128 0x1
	.byte	0x4
	.4byte	.LCFI1-.LCFI0
	.byte	0xe
	.uleb128 0x10
	.byte	0x4
	.4byte	.LCFI2-.LCFI1
	.byte	0xe
	.uleb128 0x4
	.align	2
.LEFDE0:
.LSFDE2:
	.4byte	.LEFDE2-.LASFDE2
.LASFDE2:
	.4byte	.Lframe0
	.4byte	.LFB131
	.4byte	.LFE131-.LFB131
	.byte	0x4
	.4byte	.LCFI3-.LFB131
	.byte	0xe
	.uleb128 0x4
	.byte	0x8e
	.uleb128 0x1
	.byte	0x4
	.4byte	.LCFI4-.LCFI3
	.byte	0xe
	.uleb128 0x10
	.byte	0x4
	.4byte	.LCFI5-.LCFI4
	.byte	0xe
	.uleb128 0x4
	.align	2
.LEFDE2:
.LSFDE4:
	.4byte	.LEFDE4-.LASFDE4
.LASFDE4:
	.4byte	.Lframe0
	.4byte	.LFB132
	.4byte	.LFE132-.LFB132
	.byte	0x4
	.4byte	.LCFI6-.LFB132
	.byte	0xe
	.uleb128 0x4
	.byte	0x8e
	.uleb128 0x1
	.byte	0x4
	.4byte	.LCFI7-.LCFI6
	.byte	0xe
	.uleb128 0x18
	.byte	0x4
	.4byte	.LCFI8-.LCFI7
	.byte	0xe
	.uleb128 0x4
	.align	2
.LEFDE4:
.LSFDE6:
	.4byte	.LEFDE6-.LASFDE6
.LASFDE6:
	.4byte	.Lframe0
	.4byte	.LFB133
	.4byte	.LFE133-.LFB133
	.byte	0x4
	.4byte	.LCFI9-.LFB133
	.byte	0xe
	.uleb128 0x8
	.byte	0x83
	.uleb128 0x2
	.byte	0x8e
	.uleb128 0x1
	.align	2
.LEFDE6:
	.text
.Letext0:
	.file 2 "C:/Program Files/SEGGER/SEGGER Embedded Studio for ARM 4.30c/include/stdint.h"
	.file 3 "../Drivers/CMSIS/Include/core_cm4.h"
	.file 4 "../Drivers/CMSIS/Device/ST/STM32F4xx/Include/system_stm32f4xx.h"
	.file 5 "../Drivers/CMSIS/Device/ST/STM32F4xx/Include/stm32f407xx.h"
	.file 6 "C:/Program Files/SEGGER/SEGGER Embedded Studio for ARM 4.30c/include/__crossworks.h"
	.file 7 "../Drivers/STM32F4xx_HAL_Driver/Inc/stm32f4xx_hal_def.h"
	.file 8 "../Drivers/STM32F4xx_HAL_Driver/Inc/stm32f4xx_hal_gpio.h"
	.file 9 "../Drivers/STM32F4xx_HAL_Driver/Inc/stm32f4xx_hal_dma.h"
	.file 10 "../Drivers/STM32F4xx_HAL_Driver/Inc/stm32f4xx_hal_spi.h"